target datalayout = "e-m:e-p270:32:32-p271:32:32-p272:64:64-i64:64-i128:128-f80:128-n8:16:32:64-S128"
target triple = "x86_64-pc-linux-gnu"

%struct._dcerpc_auth_context = type { ptr, i64, i8, i8, i32, i32, i8 }

; Function Attrs: nounwind null_pointer_is_valid sspstrong uwtable
define internal i32 @dcerpc_auth_context_equal(ptr noundef %0, ptr noundef %1) #10 {
  %3 = alloca ptr, align 8
  %4 = alloca ptr, align 8
  %5 = alloca ptr, align 8
  %6 = alloca ptr, align 8
  store ptr %0, ptr %3, align 8
  store ptr %1, ptr %4, align 8
  call void @llvm.lifetime.start.p0(i64 8, ptr %5) #19
  %7 = load ptr, ptr %3, align 8
  store ptr %7, ptr %5, align 8
  call void @llvm.lifetime.start.p0(i64 8, ptr %6) #19
  %8 = load ptr, ptr %4, align 8
  store ptr %8, ptr %6, align 8
  %9 = load ptr, ptr %5, align 8
  %10 = getelementptr inbounds nuw %struct._dcerpc_auth_context, ptr %9, i32 0, i32 0
  %11 = load ptr, ptr %10, align 8
  %12 = load ptr, ptr %6, align 8
  %13 = getelementptr inbounds nuw %struct._dcerpc_auth_context, ptr %12, i32 0, i32 0
  %14 = load ptr, ptr %13, align 8
  %15 = icmp eq ptr %11, %14
  br i1 %15, label %16, label %32

16:                                               ; preds = %2
  %17 = load ptr, ptr %5, align 8
  %18 = getelementptr inbounds nuw %struct._dcerpc_auth_context, ptr %17, i32 0, i32 4
  %19 = load i32, ptr %18, align 4
  %20 = load ptr, ptr %6, align 8
  %21 = getelementptr inbounds nuw %struct._dcerpc_auth_context, ptr %20, i32 0, i32 4
  %22 = load i32, ptr %21, align 4
  %23 = icmp eq i32 %19, %22
  br i1 %23, label %24, label %32

24:                                               ; preds = %16
  %25 = load ptr, ptr %5, align 8
  %26 = getelementptr inbounds nuw %struct._dcerpc_auth_context, ptr %25, i32 0, i32 1
  %27 = load i64, ptr %26, align 8
  %28 = load ptr, ptr %6, align 8
  %29 = getelementptr inbounds nuw %struct._dcerpc_auth_context, ptr %28, i32 0, i32 1
  %30 = load i64, ptr %29, align 8
  %31 = icmp eq i64 %27, %30
  br label %32

32:                                               ; preds = %24, %16, %2
  %33 = phi i1 [ false, %16 ], [ false, %2 ], [ %31, %24 ]
  %34 = zext i1 %33 to i32
  call void @llvm.lifetime.end.p0(i64 8, ptr %6) #19
  call void @llvm.lifetime.end.p0(i64 8, ptr %5) #19
  ret i32 %34
}